target datalayout = "e-m:e-p270:32:32-p271:32:32-p272:64:64-i64:64-i128:128-f80:128-n8:16:32:64-S128"
target triple = "x86_64-pc-linux-gnu"

%struct.Kit_DsdMan_t_ = type { i32, i32, ptr, ptr, ptr, ptr, ptr }
%struct.Vec_Ptr_t_ = type { i32, i32, ptr }
%struct.Kit_DsdNtk_t_ = type { i16, i16, i16, i16, ptr, ptr, ptr }

@.str.14 = private unnamed_addr constant [22 x i8] c"Verification failed.\0A\00", align 1

; Function Attrs: inlinehint nounwind uwtable
define internal ptr @Kit_DsdNtkObj(ptr noundef %0, i32 noundef %1) #4 {
  %3 = alloca ptr, align 8
  %4 = alloca i32, align 4
  store ptr %0, ptr %3, align 8, !tbaa !37
  store i32 %1, ptr %4, align 4, !tbaa !3
  %5 = load i32, ptr %4, align 4, !tbaa !3
  %6 = load ptr, ptr %3, align 8, !tbaa !37
  %7 = getelementptr inbounds nuw %struct.Kit_DsdNtk_t_, ptr %6, i32 0, i32 0
  %8 = load i16, ptr %7, align 8, !tbaa !41
  %9 = zext i16 %8 to i32
  %10 = icmp slt i32 %5, %9
  br i1 %10, label %11, label %12

11:                                               ; preds = %2
  br label %25

12:                                               ; preds = %2
  %13 = load ptr, ptr %3, align 8, !tbaa !37
  %14 = getelementptr inbounds nuw %struct.Kit_DsdNtk_t_, ptr %13, i32 0, i32 6
  %15 = load ptr, ptr %14, align 8, !tbaa !47
  %16 = load i32, ptr %4, align 4, !tbaa !3
  %17 = load ptr, ptr %3, align 8, !tbaa !37
  %18 = getelementptr inbounds nuw %struct.Kit_DsdNtk_t_, ptr %17, i32 0, i32 0
  %19 = load i16, ptr %18, align 8, !tbaa !41
  %20 = zext i16 %19 to i32
  %21 = sub nsw i32 %16, %20
  %22 = sext i32 %21 to i64
  %23 = getelementptr inbounds ptr, ptr %15, i64 %22
  %24 = load ptr, ptr %23, align 8, !tbaa !39
  br label %25

25:                                               ; preds = %12, %11
  %26 = phi ptr [ null, %11 ], [ %24, %12 ]
  ret ptr %26
}

; Function Attrs: inlinehint nounwind uwtable
define internal i32 @Kit_TruthWordNum(i32 noundef %0) #4 {
  %2 = alloca i32, align 4
  store i32 %0, ptr %2, align 4, !tbaa !3
  %3 = load i32, ptr %2, align 4, !tbaa !3
  %4 = icmp sle i32 %3, 5
  br i1 %4, label %5, label %6

5:                                                ; preds = %1
  br label %10

6:                                                ; preds = %1
  %7 = load i32, ptr %2, align 4, !tbaa !3
  %8 = sub nsw i32 %7, 5
  %9 = shl i32 1, %8
  br label %10

10:                                               ; preds = %6, %5
  %11 = phi i32 [ 1, %5 ], [ %9, %6 ]
  ret i32 %11
}

; Function Attrs: inlinehint nounwind uwtable
define internal void @Kit_TruthNot(ptr noundef %0, ptr noundef %1, i32 noundef %2) #4 {
  %4 = alloca ptr, align 8
  %5 = alloca ptr, align 8
  %6 = alloca i32, align 4
  %7 = alloca i32, align 4
  store ptr %0, ptr %4, align 8, !tbaa !25
  store ptr %1, ptr %5, align 8, !tbaa !25
  store i32 %2, ptr %6, align 4, !tbaa !3
  call void @llvm.lifetime.start.p0(i64 4, ptr %7) #9
  %8 = load i32, ptr %6, align 4, !tbaa !3
  %9 = call i32 @Kit_TruthWordNum(i32 noundef %8)
  %10 = sub nsw i32 %9, 1
  store i32 %10, ptr %7, align 4, !tbaa !3
  br label %11

11:                                               ; preds = %25, %3
  %12 = load i32, ptr %7, align 4, !tbaa !3
  %13 = icmp sge i32 %12, 0
  br i1 %13, label %14, label %28

14:                                               ; preds = %11
  %15 = load ptr, ptr %5, align 8, !tbaa !25
  %16 = load i32, ptr %7, align 4, !tbaa !3
  %17 = sext i32 %16 to i64
  %18 = getelementptr inbounds i32, ptr %15, i64 %17
  %19 = load i32, ptr %18, align 4, !tbaa !3
  %20 = xor i32 %19, -1
  %21 = load ptr, ptr %4, align 8, !tbaa !25
  %22 = load i32, ptr %7, align 4, !tbaa !3
  %23 = sext i32 %22 to i64
  %24 = getelementptr inbounds i32, ptr %21, i64 %23
  store i32 %20, ptr %24, align 4, !tbaa !3
  br label %25

25:                                               ; preds = %14
  %26 = load i32, ptr %7, align 4, !tbaa !3
  %27 = add nsw i32 %26, -1
  store i32 %27, ptr %7, align 4, !tbaa !3
  br label %11, !llvm.loop !68

28:                                               ; preds = %11
  call void @llvm.lifetime.end.p0(i64 4, ptr %7) #9
  ret void
}

; Function Attrs: inlinehint nounwind uwtable
define internal i32 @Abc_LitIsCompl(i32 noundef %0) #4 {
  %2 = alloca i32, align 4
  store i32 %0, ptr %2, align 4, !tbaa !3
  %3 = load i32, ptr %2, align 4, !tbaa !3
  %4 = and i32 %3, 1
  ret i32 %4
}

; Function Attrs: inlinehint nounwind uwtable
define internal void @Kit_TruthCopy(ptr noundef %0, ptr noundef %1, i32 noundef %2) #4 {
  %4 = alloca ptr, align 8
  %5 = alloca ptr, align 8
  %6 = alloca i32, align 4
  %7 = alloca i32, align 4
  store ptr %0, ptr %4, align 8, !tbaa !25
  store ptr %1, ptr %5, align 8, !tbaa !25
  store i32 %2, ptr %6, align 4, !tbaa !3
  call void @llvm.lifetime.start.p0(i64 4, ptr %7) #9
  %8 = load i32, ptr %6, align 4, !tbaa !3
  %9 = call i32 @Kit_TruthWordNum(i32 noundef %8)
  %10 = sub nsw i32 %9, 1
  store i32 %10, ptr %7, align 4, !tbaa !3
  br label %11

11:                                               ; preds = %24, %3
  %12 = load i32, ptr %7, align 4, !tbaa !3
  %13 = icmp sge i32 %12, 0
  br i1 %13, label %14, label %27

14:                                               ; preds = %11
  %15 = load ptr, ptr %5, align 8, !tbaa !25
  %16 = load i32, ptr %7, align 4, !tbaa !3
  %17 = sext i32 %16 to i64
  %18 = getelementptr inbounds i32, ptr %15, i64 %17
  %19 = load i32, ptr %18, align 4, !tbaa !3
  %20 = load ptr, ptr %4, align 8, !tbaa !25
  %21 = load i32, ptr %7, align 4, !tbaa !3
  %22 = sext i32 %21 to i64
  %23 = getelementptr inbounds i32, ptr %20, i64 %22
  store i32 %19, ptr %23, align 4, !tbaa !3
  br label %24

24:                                               ; preds = %14
  %25 = load i32, ptr %7, align 4, !tbaa !3
  %26 = add nsw i32 %25, -1
  store i32 %26, ptr %7, align 4, !tbaa !3
  br label %11, !llvm.loop !69

27:                                               ; preds = %11
  call void @llvm.lifetime.end.p0(i64 4, ptr %7) #9
  ret void
}

; Function Attrs: inlinehint nounwind uwtable
define internal ptr @Vec_PtrEntry(ptr noundef %0, i32 noundef %1) #4 {
  %3 = alloca ptr, align 8
  %4 = alloca i32, align 4
  store ptr %0, ptr %3, align 8, !tbaa !21
  store i32 %1, ptr %4, align 4, !tbaa !3
  %5 = load ptr, ptr %3, align 8, !tbaa !21
  %6 = getelementptr inbounds nuw %struct.Vec_Ptr_t_, ptr %5, i32 0, i32 2
  %7 = load ptr, ptr %6, align 8, !tbaa !22
  %8 = load i32, ptr %4, align 4, !tbaa !3
  %9 = sext i32 %8 to i64
  %10 = getelementptr inbounds ptr, ptr %7, i64 %9
  %11 = load ptr, ptr %10, align 8, !tbaa !24
  ret ptr %11
}

; Function Attrs: inlinehint nounwind uwtable
define internal i32 @Abc_Lit2Var(i32 noundef %0) #4 {
  %2 = alloca i32, align 4
  store i32 %0, ptr %2, align 4, !tbaa !3
  %3 = load i32, ptr %2, align 4, !tbaa !3
  %4 = ashr i32 %3, 1
  ret i32 %4
}

; Function Attrs: inlinehint nounwind uwtable
define internal ptr @Kit_DsdNtkRoot(ptr noundef %0) #4 {
  %2 = alloca ptr, align 8
  store ptr %0, ptr %2, align 8, !tbaa !37
  %3 = load ptr, ptr %2, align 8, !tbaa !37
  %4 = load ptr, ptr %2, align 8, !tbaa !37
  %5 = getelementptr inbounds nuw %struct.Kit_DsdNtk_t_, ptr %4, i32 0, i32 3
  %6 = load i16, ptr %5, align 2, !tbaa !60
  %7 = zext i16 %6 to i32
  %8 = call i32 @Abc_Lit2Var(i32 noundef %7)
  %9 = call ptr @Kit_DsdNtkObj(ptr noundef %3, i32 noundef %8)
  ret ptr %9
}

; Function Attrs: inlinehint nounwind uwtable
define internal i32 @Kit_TruthIsEqual(ptr noundef %0, ptr noundef %1, i32 noundef %2) #4 {
  %4 = alloca i32, align 4
  %5 = alloca ptr, align 8
  %6 = alloca ptr, align 8
  %7 = alloca i32, align 4
  %8 = alloca i32, align 4
  %9 = alloca i32, align 4
  store ptr %0, ptr %5, align 8, !tbaa !25
  store ptr %1, ptr %6, align 8, !tbaa !25
  store i32 %2, ptr %7, align 4, !tbaa !3
  call void @llvm.lifetime.start.p0(i64 4, ptr %8) #9
  %10 = load i32, ptr %7, align 4, !tbaa !3
  %11 = call i32 @Kit_TruthWordNum(i32 noundef %10)
  %12 = sub nsw i32 %11, 1
  store i32 %12, ptr %8, align 4, !tbaa !3
  br label %13

13:                                               ; preds = %30, %3
  %14 = load i32, ptr %8, align 4, !tbaa !3
  %15 = icmp sge i32 %14, 0
  br i1 %15, label %16, label %33

16:                                               ; preds = %13
  %17 = load ptr, ptr %5, align 8, !tbaa !25
  %18 = load i32, ptr %8, align 4, !tbaa !3
  %19 = sext i32 %18 to i64
  %20 = getelementptr inbounds i32, ptr %17, i64 %19
  %21 = load i32, ptr %20, align 4, !tbaa !3
  %22 = load ptr, ptr %6, align 8, !tbaa !25
  %23 = load i32, ptr %8, align 4, !tbaa !3
  %24 = sext i32 %23 to i64
  %25 = getelementptr inbounds i32, ptr %22, i64 %24
  %26 = load i32, ptr %25, align 4, !tbaa !3
  %27 = icmp ne i32 %21, %26
  br i1 %27, label %28, label %29

28:                                               ; preds = %16
  store i32 0, ptr %4, align 4
  store i32 1, ptr %9, align 4
  br label %34

29:                                               ; preds = %16
  br label %30

30:                                               ; preds = %29
  %31 = load i32, ptr %8, align 4, !tbaa !3
  %32 = add nsw i32 %31, -1
  store i32 %32, ptr %8, align 4, !tbaa !3
  br label %13, !llvm.loop !137

33:                                               ; preds = %13
  store i32 1, ptr %4, align 4
  store i32 1, ptr %9, align 4
  br label %34

34:                                               ; preds = %33, %28
  call void @llvm.lifetime.end.p0(i64 4, ptr %8) #9
  %35 = load i32, ptr %4, align 4
  ret i32 %35
}

; Function Attrs: nounwind uwtable
define ptr @Kit_DsdTruthCompute(ptr noundef %0, ptr noundef %1) #0 {
  %3 = alloca ptr, align 8
  %4 = alloca ptr, align 8
  %5 = alloca ptr, align 8
  %6 = alloca i32, align 4
  store ptr %0, ptr %3, align 8, !tbaa !7
  store ptr %1, ptr %4, align 8, !tbaa !37
  call void @llvm.lifetime.start.p0(i64 8, ptr %5) #9
  call void @llvm.lifetime.start.p0(i64 4, ptr %6) #9
  store i32 0, ptr %6, align 4, !tbaa !3
  br label %7

7:                                                ; preds = %28, %2
  %8 = load i32, ptr %6, align 4, !tbaa !3
  %9 = load ptr, ptr %4, align 8, !tbaa !37
  %10 = getelementptr inbounds nuw %struct.Kit_DsdNtk_t_, ptr %9, i32 0, i32 0
  %11 = load i16, ptr %10, align 8, !tbaa !41
  %12 = zext i16 %11 to i32
  %13 = icmp slt i32 %8, %12
  br i1 %13, label %14, label %31

14:                                               ; preds = %7
  %15 = load ptr, ptr %3, align 8, !tbaa !7
  %16 = getelementptr inbounds nuw %struct.Kit_DsdMan_t_, ptr %15, i32 0, i32 3
  %17 = load ptr, ptr %16, align 8, !tbaa !17
  %18 = load i32, ptr %6, align 4, !tbaa !3
  %19 = call ptr @Vec_PtrEntry(ptr noundef %17, i32 noundef %18)
  %20 = load ptr, ptr %3, align 8, !tbaa !7
  %21 = getelementptr inbounds nuw %struct.Kit_DsdMan_t_, ptr %20, i32 0, i32 2
  %22 = load ptr, ptr %21, align 8, !tbaa !16
  %23 = load i32, ptr %6, align 4, !tbaa !3
  %24 = call ptr @Vec_PtrEntry(ptr noundef %22, i32 noundef %23)
  %25 = load ptr, ptr %3, align 8, !tbaa !7
  %26 = getelementptr inbounds nuw %struct.Kit_DsdMan_t_, ptr %25, i32 0, i32 0
  %27 = load i32, ptr %26, align 8, !tbaa !10
  call void @Kit_TruthCopy(ptr noundef %19, ptr noundef %24, i32 noundef %27)
  br label %28

28:                                               ; preds = %14
  %29 = load i32, ptr %6, align 4, !tbaa !3
  %30 = add nsw i32 %29, 1
  store i32 %30, ptr %6, align 4, !tbaa !3
  br label %7, !llvm.loop !76

31:                                               ; preds = %7
  %32 = load ptr, ptr %3, align 8, !tbaa !7
  %33 = load ptr, ptr %4, align 8, !tbaa !37
  %34 = load ptr, ptr %4, align 8, !tbaa !37
  %35 = getelementptr inbounds nuw %struct.Kit_DsdNtk_t_, ptr %34, i32 0, i32 3
  %36 = load i16, ptr %35, align 2, !tbaa !60
  %37 = zext i16 %36 to i32
  %38 = call i32 @Abc_Lit2Var(i32 noundef %37)
  %39 = call ptr @Kit_DsdTruthComputeNode_rec(ptr noundef %32, ptr noundef %33, i32 noundef %38)
  store ptr %39, ptr %5, align 8, !tbaa !25
  %40 = load ptr, ptr %4, align 8, !tbaa !37
  %41 = getelementptr inbounds nuw %struct.Kit_DsdNtk_t_, ptr %40, i32 0, i32 3
  %42 = load i16, ptr %41, align 2, !tbaa !60
  %43 = zext i16 %42 to i32
  %44 = call i32 @Abc_LitIsCompl(i32 noundef %43)
  %45 = icmp ne i32 %44, 0
  br i1 %45, label %46, label %53

46:                                               ; preds = %31
  %47 = load ptr, ptr %5, align 8, !tbaa !25
  %48 = load ptr, ptr %5, align 8, !tbaa !25
  %49 = load ptr, ptr %4, align 8, !tbaa !37
  %50 = getelementptr inbounds nuw %struct.Kit_DsdNtk_t_, ptr %49, i32 0, i32 0
  %51 = load i16, ptr %50, align 8, !tbaa !41
  %52 = zext i16 %51 to i32
  call void @Kit_TruthNot(ptr noundef %47, ptr noundef %48, i32 noundef %52)
  br label %53

53:                                               ; preds = %46, %31
  %54 = load ptr, ptr %5, align 8, !tbaa !25
  call void @llvm.lifetime.end.p0(i64 4, ptr %6) #9
  call void @llvm.lifetime.end.p0(i64 8, ptr %5) #9
  ret ptr %54
}

; Function Attrs: inlinehint nounwind uwtable
define internal i32 @Kit_DsdNtkObjNum(ptr noundef %0) #4 {
  %2 = alloca ptr, align 8
  store ptr %0, ptr %2, align 8, !tbaa !37
  %3 = load ptr, ptr %2, align 8, !tbaa !37
  %4 = getelementptr inbounds nuw %struct.Kit_DsdNtk_t_, ptr %3, i32 0, i32 0
  %5 = load i16, ptr %4, align 8, !tbaa !41
  %6 = zext i16 %5 to i32
  %7 = load ptr, ptr %2, align 8, !tbaa !37
  %8 = getelementptr inbounds nuw %struct.Kit_DsdNtk_t_, ptr %7, i32 0, i32 2
  %9 = load i16, ptr %8, align 4, !tbaa !45
  %10 = zext i16 %9 to i32
  %11 = add nsw i32 %6, %10
  ret i32 %11
}

; Function Attrs: nounwind uwtable
define i32 @Kit_DsdCountLuts(ptr noundef %0, i32 noundef %1) #0 {
  %3 = alloca i32, align 4
  %4 = alloca ptr, align 8
  %5 = alloca i32, align 4
  %6 = alloca i32, align 4
  %7 = alloca i32, align 4
  store ptr %0, ptr %4, align 8, !tbaa !37
  store i32 %1, ptr %5, align 4, !tbaa !3
  call void @llvm.lifetime.start.p0(i64 4, ptr %6) #9
  store i32 0, ptr %6, align 4, !tbaa !3
  %8 = load ptr, ptr %4, align 8, !tbaa !37
  %9 = call ptr @Kit_DsdNtkRoot(ptr noundef %8)
  %10 = load i32, ptr %9, align 4
  %11 = lshr i32 %10, 6
  %12 = and i32 %11, 7
  %13 = icmp eq i32 %12, 1
  br i1 %13, label %14, label %15

14:                                               ; preds = %2
  store i32 0, ptr %3, align 4
  store i32 1, ptr %7, align 4
  br label %37

15:                                               ; preds = %2
  %16 = load ptr, ptr %4, align 8, !tbaa !37
  %17 = call ptr @Kit_DsdNtkRoot(ptr noundef %16)
  %18 = load i32, ptr %17, align 4
  %19 = lshr i32 %18, 6
  %20 = and i32 %19, 7
  %21 = icmp eq i32 %20, 2
  br i1 %21, label %22, label %23

22:                                               ; preds = %15
  store i32 0, ptr %3, align 4
  store i32 1, ptr %7, align 4
  br label %37

23:                                               ; preds = %15
  %24 = load ptr, ptr %4, align 8, !tbaa !37
  %25 = load i32, ptr %5, align 4, !tbaa !3
  %26 = load ptr, ptr %4, align 8, !tbaa !37
  %27 = getelementptr inbounds nuw %struct.Kit_DsdNtk_t_, ptr %26, i32 0, i32 3
  %28 = load i16, ptr %27, align 2, !tbaa !60
  %29 = zext i16 %28 to i32
  %30 = call i32 @Abc_Lit2Var(i32 noundef %29)
  %31 = call i32 @Kit_DsdCountLuts_rec(ptr noundef %24, i32 noundef %25, i32 noundef %30, ptr noundef %6)
  %32 = load i32, ptr %6, align 4, !tbaa !3
  %33 = icmp sge i32 %32, 1000
  br i1 %33, label %34, label %35

34:                                               ; preds = %23
  store i32 -1, ptr %3, align 4
  store i32 1, ptr %7, align 4
  br label %37

35:                                               ; preds = %23
  %36 = load i32, ptr %6, align 4, !tbaa !3
  store i32 %36, ptr %3, align 4
  store i32 1, ptr %7, align 4
  br label %37

37:                                               ; preds = %35, %34, %22, %14
  call void @llvm.lifetime.end.p0(i64 4, ptr %6) #9
  %38 = load i32, ptr %3, align 4
  ret i32 %38
}

; Function Attrs: nounwind uwtable
define ptr @Kit_DsdDecompose(ptr noundef %0, i32 noundef %1) #0 {
  %3 = alloca ptr, align 8
  %4 = alloca i32, align 4
  store ptr %0, ptr %3, align 8, !tbaa !25
  store i32 %1, ptr %4, align 4, !tbaa !3
  %5 = load ptr, ptr %3, align 8, !tbaa !25
  %6 = load i32, ptr %4, align 4, !tbaa !3
  %7 = call ptr @Kit_DsdDecomposeInt(ptr noundef %5, i32 noundef %6, i32 noundef 0)
  ret ptr %7
}

; Function Attrs: nounwind uwtable
define i32 @Kit_DsdEval(ptr noundef %0, i32 noundef %1, i32 noundef %2) #0 {
  %4 = alloca ptr, align 8
  %5 = alloca i32, align 4
  %6 = alloca i32, align 4
  %7 = alloca ptr, align 8
  %8 = alloca ptr, align 8
  %9 = alloca ptr, align 8
  %10 = alloca i32, align 4
  store ptr %0, ptr %4, align 8, !tbaa !25
  store i32 %1, ptr %5, align 4, !tbaa !3
  store i32 %2, ptr %6, align 4, !tbaa !3
  call void @llvm.lifetime.start.p0(i64 8, ptr %7) #9
  call void @llvm.lifetime.start.p0(i64 8, ptr %8) #9
  call void @llvm.lifetime.start.p0(i64 8, ptr %9) #9
  call void @llvm.lifetime.start.p0(i64 4, ptr %10) #9
  %11 = load ptr, ptr %4, align 8, !tbaa !25
  %12 = load i32, ptr %5, align 4, !tbaa !3
  %13 = call ptr @Kit_DsdDecompose(ptr noundef %11, i32 noundef %12)
  store ptr %13, ptr %8, align 8, !tbaa !37
  %14 = load ptr, ptr %8, align 8, !tbaa !37
  %15 = load i32, ptr %6, align 4, !tbaa !3
  %16 = call i32 @Kit_DsdCountLuts(ptr noundef %14, i32 noundef %15)
  store i32 %16, ptr %10, align 4, !tbaa !3
  %17 = load i32, ptr %5, align 4, !tbaa !3
  %18 = load ptr, ptr %8, align 8, !tbaa !37
  %19 = call i32 @Kit_DsdNtkObjNum(ptr noundef %18)
  %20 = call ptr @Kit_DsdManAlloc(i32 noundef %17, i32 noundef %19)
  store ptr %20, ptr %7, align 8, !tbaa !7
  %21 = load ptr, ptr %7, align 8, !tbaa !7
  %22 = load ptr, ptr %8, align 8, !tbaa !37
  %23 = call ptr @Kit_DsdTruthCompute(ptr noundef %21, ptr noundef %22)
  store ptr %23, ptr %9, align 8, !tbaa !25
  %24 = load ptr, ptr %4, align 8, !tbaa !25
  %25 = load ptr, ptr %9, align 8, !tbaa !25
  %26 = load i32, ptr %5, align 4, !tbaa !3
  %27 = call i32 @Kit_TruthIsEqual(ptr noundef %24, ptr noundef %25, i32 noundef %26)
  %28 = icmp ne i32 %27, 0
  br i1 %28, label %31, label %29

29:                                               ; preds = %3
  %30 = call i32 (ptr, ...) @printf(ptr noundef @.str.14)
  br label %31

31:                                               ; preds = %29, %3
  %32 = load ptr, ptr %7, align 8, !tbaa !7
  call void @Kit_DsdManFree(ptr noundef %32)
  %33 = load ptr, ptr %8, align 8, !tbaa !37
  call void @Kit_DsdNtkFree(ptr noundef %33)
  %34 = load i32, ptr %10, align 4, !tbaa !3
  call void @llvm.lifetime.end.p0(i64 4, ptr %10) #9
  call void @llvm.lifetime.end.p0(i64 8, ptr %9) #9
  call void @llvm.lifetime.end.p0(i64 8, ptr %8) #9
  call void @llvm.lifetime.end.p0(i64 8, ptr %7) #9
  ret i32 %34
}