; Function Attrs: nounwind uwtable
define range(i32 -2147483648, 1000) i32 @Kit_DsdEval(ptr noundef %0, i32 noundef %1, i32 noundef %2) local_unnamed_addr #0 {
  %4 = alloca i32, align 4
  %5 = tail call noundef ptr @Kit_DsdDecomposeInt(ptr noundef %0, i32 noundef %1, i32 noundef 0)
  call void @llvm.lifetime.start.p0(i64 4, ptr nonnull %4) #27
  store i32 0, ptr %4, align 4, !tbaa !20
  %6 = getelementptr inbounds nuw i8, ptr %5, i64 6
  %7 = load i16, ptr %6, align 2, !tbaa !51
  %8 = lshr i16 %7, 1
  %9 = load i16, ptr %5, align 8, !tbaa !34
  %10 = icmp uge i16 %8, %9
  tail call void @llvm.assume(i1 %10)
  %11 = getelementptr inbounds nuw i8, ptr %5, i64 24
  %12 = load ptr, ptr %11, align 8, !tbaa !40
  %narrow.i.i = sub nuw nsw i16 %8, %9
  %13 = zext nneg i16 %narrow.i.i to i64
  %14 = getelementptr inbounds nuw ptr, ptr %12, i64 %13
  %15 = load ptr, ptr %14, align 8, !tbaa !41
  %16 = load i32, ptr %15, align 4
  %17 = and i32 %16, 448
  switch i32 %17, label %18 [
    i32 64, label %Kit_DsdCountLuts.exit
    i32 128, label %Kit_DsdCountLuts.exit
  ]

18:                                               ; preds = %3
  %19 = zext nneg i16 %8 to i32
  %20 = call i32 @Kit_DsdCountLuts_rec(ptr noundef nonnull %5, i32 noundef %2, i32 noundef %19, ptr noundef nonnull %4)
  %21 = load i32, ptr %4, align 4, !tbaa !20
  %22 = icmp sgt i32 %21, 999
  %..i = select i1 %22, i32 -1, i32 %21
  %.val.pre = load i16, ptr %5, align 8, !tbaa !34
  br label %Kit_DsdCountLuts.exit

Kit_DsdCountLuts.exit:                            ; preds = %3, %3, %18
  %.val = phi i16 [ %.val.pre, %18 ], [ %9, %3 ], [ %9, %3 ]
  %.0.i = phi i32 [ %..i, %18 ], [ 0, %3 ], [ 0, %3 ]
  call void @llvm.lifetime.end.p0(i64 4, ptr nonnull %4) #27
  %23 = getelementptr i8, ptr %5, i64 4
  %.val13 = load i16, ptr %23, align 4, !tbaa !38
  %24 = zext i16 %.val to i32
  %25 = zext i16 %.val13 to i32
  %26 = add nuw nsw i32 %25, %24
  %27 = call ptr @Kit_DsdManAlloc(i32 noundef %1, i32 noundef %26)
  %28 = load i16, ptr %5, align 8, !tbaa !34
  %.not22.i = icmp eq i16 %28, 0
  br i1 %.not22.i, label %._crit_edge.i, label %.lr.ph.i

.lr.ph.i:                                         ; preds = %Kit_DsdCountLuts.exit
  %29 = getelementptr inbounds nuw i8, ptr %27, i64 16
  %30 = load ptr, ptr %29, align 8, !tbaa !25
  %31 = getelementptr i8, ptr %30, i64 8
  %.val15.i = load ptr, ptr %31, align 8, !tbaa !19
  %32 = getelementptr inbounds nuw i8, ptr %27, i64 8
  %33 = load ptr, ptr %32, align 8, !tbaa !24
  %34 = getelementptr i8, ptr %33, i64 8
  %.val.i = load ptr, ptr %34, align 8, !tbaa !19
  %wide.trip.count.i = zext i16 %28 to i64
  %.pre = load i32, ptr %27, align 8, !tbaa !3
  %35 = icmp slt i32 %.pre, 6
  %36 = add nsw i32 %.pre, -5
  %37 = shl nuw i32 1, %36
  %spec.select.i.i = select i1 %35, i32 1, i32 %37
  %38 = icmp sgt i32 %spec.select.i.i, 0
  %39 = zext nneg i32 %spec.select.i.i to i64
  br label %40

40:                                               ; preds = %Kit_TruthCopy.exit.i, %.lr.ph.i
  %indvars.iv.i = phi i64 [ 0, %.lr.ph.i ], [ %indvars.iv.next.i, %Kit_TruthCopy.exit.i ]
  %41 = getelementptr inbounds nuw ptr, ptr %.val15.i, i64 %indvars.iv.i
  %42 = load ptr, ptr %41, align 8, !tbaa !13
  %43 = getelementptr inbounds nuw ptr, ptr %.val.i, i64 %indvars.iv.i
  %44 = load ptr, ptr %43, align 8, !tbaa !13
  br i1 %38, label %select.unfold.i.i, label %Kit_TruthCopy.exit.i

select.unfold.i.i:                                ; preds = %40, %select.unfold.i.i
  %indvars.iv.i.i = phi i64 [ %indvars.iv.next.i.i, %select.unfold.i.i ], [ %39, %40 ]
  %indvars.iv.next.i.i = add nsw i64 %indvars.iv.i.i, -1
  %45 = getelementptr inbounds nuw i32, ptr %44, i64 %indvars.iv.next.i.i
  %46 = load i32, ptr %45, align 4, !tbaa !20
  %47 = getelementptr inbounds nuw i32, ptr %42, i64 %indvars.iv.next.i.i
  store i32 %46, ptr %47, align 4, !tbaa !20
  %48 = icmp samesign ugt i64 %indvars.iv.i.i, 1
  br i1 %48, label %select.unfold.i.i, label %Kit_TruthCopy.exit.i, !llvm.loop !56

Kit_TruthCopy.exit.i:                             ; preds = %select.unfold.i.i, %40
  %indvars.iv.next.i = add nuw nsw i64 %indvars.iv.i, 1
  %exitcond.not.i = icmp eq i64 %indvars.iv.next.i, %wide.trip.count.i
  br i1 %exitcond.not.i, label %._crit_edge.i, label %40, !llvm.loop !57

._crit_edge.i:                                    ; preds = %Kit_TruthCopy.exit.i, %Kit_DsdCountLuts.exit
  %49 = load i16, ptr %6, align 2, !tbaa !51
  %50 = lshr i16 %49, 1
  %51 = zext nneg i16 %50 to i32
  %52 = call ptr @Kit_DsdTruthComputeNode_rec(ptr noundef %27, ptr noundef nonnull %5, i32 noundef %51)
  %53 = load i16, ptr %6, align 2, !tbaa !51
  %54 = and i16 %53, 1
  %.not.i = icmp eq i16 %54, 0
  br i1 %.not.i, label %Kit_DsdTruthCompute.exit, label %55

55:                                               ; preds = %._crit_edge.i
  %56 = load i16, ptr %5, align 8, !tbaa !34
  %57 = zext i16 %56 to i32
  %58 = icmp ult i16 %56, 6
  %59 = add nsw i32 %57, -5
  %60 = shl nuw i32 1, %59
  %spec.select.i16.i = select i1 %58, i32 1, i32 %60
  %61 = icmp sgt i32 %spec.select.i16.i, 0
  br i1 %61, label %select.unfold.preheader.i17.i, label %Kit_DsdTruthCompute.exit

select.unfold.preheader.i17.i:                    ; preds = %55
  %62 = zext nneg i32 %spec.select.i16.i to i64
  br label %select.unfold.i18.i

select.unfold.i18.i:                              ; preds = %select.unfold.i18.i, %select.unfold.preheader.i17.i
  %indvars.iv.i19.i = phi i64 [ %62, %select.unfold.preheader.i17.i ], [ %indvars.iv.next.i20.i, %select.unfold.i18.i ]
  %indvars.iv.next.i20.i = add nsw i64 %indvars.iv.i19.i, -1
  %63 = getelementptr inbounds nuw i32, ptr %52, i64 %indvars.iv.next.i20.i
  %64 = load i32, ptr %63, align 4, !tbaa !20
  %65 = xor i32 %64, -1
  store i32 %65, ptr %63, align 4, !tbaa !20
  %66 = icmp samesign ugt i64 %indvars.iv.i19.i, 1
  br i1 %66, label %select.unfold.i18.i, label %Kit_DsdTruthCompute.exit, !llvm.loop !58

Kit_DsdTruthCompute.exit:                         ; preds = %select.unfold.i18.i, %._crit_edge.i, %55
  %67 = icmp slt i32 %1, 6
  %68 = add nsw i32 %1, -5
  %69 = shl nuw i32 1, %68
  %spec.select.i = select i1 %67, i32 1, i32 %69
  %70 = zext i32 %spec.select.i to i64
  br label %select.unfold.i

select.unfold.i:                                  ; preds = %73, %Kit_DsdTruthCompute.exit
  %indvars.iv.i14 = phi i64 [ %70, %Kit_DsdTruthCompute.exit ], [ %74, %73 ]
  %71 = trunc nuw i64 %indvars.iv.i14 to i32
  %72 = icmp sgt i32 %71, 0
  br i1 %72, label %73, label %Kit_TruthIsEqual.exit

73:                                               ; preds = %select.unfold.i
  %74 = add nsw i64 %indvars.iv.i14, -1
  %75 = getelementptr inbounds nuw i32, ptr %0, i64 %74
  %76 = load i32, ptr %75, align 4, !tbaa !20
  %77 = getelementptr inbounds nuw i32, ptr %52, i64 %74
  %78 = load i32, ptr %77, align 4, !tbaa !20
  %.not.i15 = icmp eq i32 %76, %78
  br i1 %.not.i15, label %select.unfold.i, label %79, !llvm.loop !124

79:                                               ; preds = %73
  %puts = call i32 @puts(ptr nonnull dereferenceable(1) @str.2)
  br label %Kit_TruthIsEqual.exit

Kit_TruthIsEqual.exit:                            ; preds = %select.unfold.i, %79
  call void @Kit_DsdManFree(ptr noundef %27)
  call void @Kit_DsdNtkFree(ptr noundef nonnull %5)
  ret i32 %.0.i
}